; Function Attrs: mustprogress uwtable
define internal void @_ZNK19OpenColorIO_v2_4dev12_GLOBAL__N_18OpWriter5writeEv(ptr noundef nonnull align 8 dereferenceable(24) %this) unnamed_addr #4 align 2 personality ptr @__gxx_personality_v0 {
entry:
  %attributes = alloca %"class.std::vector", align 8
  %ref.tmp = alloca %"class.std::__cxx11::basic_string", align 8
  %ref.tmp5 = alloca %"class.std::allocator", align 1
  %scopeIndent = alloca %"class.OpenColorIO_v2_4dev::XmlScopeIndent", align 8
  %ref.tmp21 = alloca %"class.std::__cxx11::basic_string", align 8
  %ref.tmp22 = alloca %"class.std::allocator", align 1
  call void @llvm.memset.p0.i64(ptr noundef nonnull align 8 dereferenceable(24) %attributes, i8 0, i64 24, i1 false)
  %vtable = load ptr, ptr %this, align 8
  %vfn = getelementptr inbounds i8, ptr %vtable, i64 40
  %0 = load ptr, ptr %vfn, align 8
  invoke void %0(ptr noundef nonnull align 8 dereferenceable(24) %this, ptr noundef nonnull align 8 dereferenceable(24) %attributes)
          to label %invoke.cont unwind label %lpad

invoke.cont:                                      ; preds = %entry
  %vtable2 = load ptr, ptr %this, align 8
  %vfn3 = getelementptr inbounds i8, ptr %vtable2, i64 32
  %1 = load ptr, ptr %vfn3, align 8
  %call = invoke noundef ptr %1(ptr noundef nonnull align 8 dereferenceable(24) %this)
          to label %invoke.cont4 unwind label %lpad

invoke.cont4:                                     ; preds = %invoke.cont
  %m_formatter = getelementptr inbounds i8, ptr %this, i64 8
  %2 = load ptr, ptr %m_formatter, align 8
  call void @_ZNSaIcEC1Ev(ptr noundef nonnull align 1 dereferenceable(1) %ref.tmp5) #25
  invoke void @_ZNSt7__cxx1112basic_stringIcSt11char_traitsIcESaIcEEC1EPKcRKS3_(ptr noundef nonnull align 8 dereferenceable(32) %ref.tmp, ptr noundef %call, ptr noundef nonnull align 1 dereferenceable(1) %ref.tmp5)
          to label %invoke.cont7 unwind label %lpad6

invoke.cont7:                                     ; preds = %invoke.cont4
  invoke void @_ZN19OpenColorIO_v2_4dev12XmlFormatter13writeStartTagERKNSt7__cxx1112basic_stringIcSt11char_traitsIcESaIcEEERKSt6vectorISt4pairIS6_S6_ESaISB_EE(ptr noundef nonnull align 8 dereferenceable(16) %2, ptr noundef nonnull align 8 dereferenceable(32) %ref.tmp, ptr noundef nonnull align 8 dereferenceable(24) %attributes)
          to label %invoke.cont9 unwind label %lpad8

invoke.cont9:                                     ; preds = %invoke.cont7
  call void @_ZNSt7__cxx1112basic_stringIcSt11char_traitsIcESaIcEED1Ev(ptr noundef nonnull align 8 dereferenceable(32) %ref.tmp) #25
  call void @_ZNSaIcED1Ev(ptr noundef nonnull align 1 dereferenceable(1) %ref.tmp5) #25
  %3 = load ptr, ptr %m_formatter, align 8
  invoke void @_ZN19OpenColorIO_v2_4dev14XmlScopeIndentC1ERNS_12XmlFormatterE(ptr noundef nonnull align 8 dereferenceable(8) %scopeIndent, ptr noundef nonnull align 8 dereferenceable(16) %3)
          to label %invoke.cont11 unwind label %lpad

invoke.cont11:                                    ; preds = %invoke.cont9
  %vtable12 = load ptr, ptr %this, align 8
  %vfn13 = getelementptr inbounds i8, ptr %vtable12, i64 56
  %4 = load ptr, ptr %vfn13, align 8
  invoke void %4(ptr noundef nonnull align 8 dereferenceable(24) %this)
          to label %invoke.cont15 unwind label %lpad14

invoke.cont15:                                    ; preds = %invoke.cont11
  %vtable16 = load ptr, ptr %this, align 8
  %vfn17 = getelementptr inbounds i8, ptr %vtable16, i64 48
  %5 = load ptr, ptr %vfn17, align 8
  invoke void %5(ptr noundef nonnull align 8 dereferenceable(24) %this)
          to label %invoke.cont18 unwind label %lpad14

invoke.cont18:                                    ; preds = %invoke.cont15
  call void @_ZN19OpenColorIO_v2_4dev14XmlScopeIndentD1Ev(ptr noundef nonnull align 8 dereferenceable(8) %scopeIndent) #25
  %6 = load ptr, ptr %m_formatter, align 8
  call void @_ZNSaIcEC1Ev(ptr noundef nonnull align 1 dereferenceable(1) %ref.tmp22) #25
  invoke void @_ZNSt7__cxx1112basic_stringIcSt11char_traitsIcESaIcEEC1EPKcRKS3_(ptr noundef nonnull align 8 dereferenceable(32) %ref.tmp21, ptr noundef %call, ptr noundef nonnull align 1 dereferenceable(1) %ref.tmp22)
          to label %invoke.cont24 unwind label %lpad23

invoke.cont24:                                    ; preds = %invoke.cont18
  invoke void @_ZN19OpenColorIO_v2_4dev12XmlFormatter11writeEndTagERKNSt7__cxx1112basic_stringIcSt11char_traitsIcESaIcEEE(ptr noundef nonnull align 8 dereferenceable(16) %6, ptr noundef nonnull align 8 dereferenceable(32) %ref.tmp21)
          to label %invoke.cont26 unwind label %lpad25

invoke.cont26:                                    ; preds = %invoke.cont24
  call void @_ZNSt7__cxx1112basic_stringIcSt11char_traitsIcESaIcEED1Ev(ptr noundef nonnull align 8 dereferenceable(32) %ref.tmp21) #25
  call void @_ZNSaIcED1Ev(ptr noundef nonnull align 1 dereferenceable(1) %ref.tmp22) #25
  %7 = load ptr, ptr %attributes, align 8
  %_M_finish.i = getelementptr inbounds i8, ptr %attributes, i64 8
  %8 = load ptr, ptr %_M_finish.i, align 8
  %cmp.not3.i.i.i.i = icmp eq ptr %7, %8
  br i1 %cmp.not3.i.i.i.i, label %invoke.cont.i, label %for.body.i.i.i.i

for.body.i.i.i.i:                                 ; preds = %invoke.cont26, %for.body.i.i.i.i
  %__first.addr.04.i.i.i.i = phi ptr [ %incdec.ptr.i.i.i.i, %for.body.i.i.i.i ], [ %7, %invoke.cont26 ]
  %second.i.i.i.i.i.i = getelementptr inbounds i8, ptr %__first.addr.04.i.i.i.i, i64 32
  call void @_ZNSt7__cxx1112basic_stringIcSt11char_traitsIcESaIcEED1Ev(ptr noundef nonnull align 8 dereferenceable(32) %second.i.i.i.i.i.i) #25
  call void @_ZNSt7__cxx1112basic_stringIcSt11char_traitsIcESaIcEED1Ev(ptr noundef nonnull align 8 dereferenceable(32) %__first.addr.04.i.i.i.i) #25
  %incdec.ptr.i.i.i.i = getelementptr inbounds i8, ptr %__first.addr.04.i.i.i.i, i64 64
  %cmp.not.i.i.i.i = icmp eq ptr %incdec.ptr.i.i.i.i, %8
  br i1 %cmp.not.i.i.i.i, label %invoke.contthread-pre-split.i, label %for.body.i.i.i.i, !llvm.loop !50

invoke.contthread-pre-split.i:                    ; preds = %for.body.i.i.i.i
  %.pr.i = load ptr, ptr %attributes, align 8
  br label %invoke.cont.i

invoke.cont.i:                                    ; preds = %invoke.contthread-pre-split.i, %invoke.cont26
  %9 = phi ptr [ %.pr.i, %invoke.contthread-pre-split.i ], [ %7, %invoke.cont26 ]
  %tobool.not.i.i.i = icmp eq ptr %9, null
  br i1 %tobool.not.i.i.i, label %_ZNSt6vectorISt4pairINSt7__cxx1112basic_stringIcSt11char_traitsIcESaIcEEES6_ESaIS7_EED2Ev.exit, label %if.then.i.i.i

if.then.i.i.i:                                    ; preds = %invoke.cont.i
  call void @_ZdlPv(ptr noundef nonnull %9) #27
  br label %_ZNSt6vectorISt4pairINSt7__cxx1112basic_stringIcSt11char_traitsIcESaIcEEES6_ESaIS7_EED2Ev.exit

_ZNSt6vectorISt4pairINSt7__cxx1112basic_stringIcSt11char_traitsIcESaIcEEES6_ESaIS7_EED2Ev.exit: ; preds = %invoke.cont.i, %if.then.i.i.i
  ret void

lpad:                                             ; preds = %invoke.cont9, %invoke.cont, %entry
  %10 = landingpad { ptr, i32 }
          cleanup
  br label %ehcleanup29

lpad6:                                            ; preds = %invoke.cont4
  %11 = landingpad { ptr, i32 }
          cleanup
  br label %ehcleanup

lpad8:                                            ; preds = %invoke.cont7
  %12 = landingpad { ptr, i32 }
          cleanup
  call void @_ZNSt7__cxx1112basic_stringIcSt11char_traitsIcESaIcEED1Ev(ptr noundef nonnull align 8 dereferenceable(32) %ref.tmp) #25
  br label %ehcleanup

ehcleanup:                                        ; preds = %lpad8, %lpad6
  %.pn = phi { ptr, i32 } [ %12, %lpad8 ], [ %11, %lpad6 ]
  call void @_ZNSaIcED1Ev(ptr noundef nonnull align 1 dereferenceable(1) %ref.tmp5) #25
  br label %ehcleanup29

lpad14:                                           ; preds = %invoke.cont15, %invoke.cont11
  %13 = landingpad { ptr, i32 }
          cleanup
  call void @_ZN19OpenColorIO_v2_4dev14XmlScopeIndentD1Ev(ptr noundef nonnull align 8 dereferenceable(8) %scopeIndent) #25
  br label %ehcleanup29

lpad23:                                           ; preds = %invoke.cont18
  %14 = landingpad { ptr, i32 }
          cleanup
  br label %ehcleanup28

lpad25:                                           ; preds = %invoke.cont24
  %15 = landingpad { ptr, i32 }
          cleanup
  call void @_ZNSt7__cxx1112basic_stringIcSt11char_traitsIcESaIcEED1Ev(ptr noundef nonnull align 8 dereferenceable(32) %ref.tmp21) #25
  br label %ehcleanup28

ehcleanup28:                                      ; preds = %lpad25, %lpad23
  %.pn3 = phi { ptr, i32 } [ %15, %lpad25 ], [ %14, %lpad23 ]
  call void @_ZNSaIcED1Ev(ptr noundef nonnull align 1 dereferenceable(1) %ref.tmp22) #25
  br label %ehcleanup29

ehcleanup29:                                      ; preds = %ehcleanup28, %lpad14, %ehcleanup, %lpad
  %.pn3.pn = phi { ptr, i32 } [ %.pn3, %ehcleanup28 ], [ %13, %lpad14 ], [ %10, %lpad ], [ %.pn, %ehcleanup ]
  call void @_ZNSt6vectorISt4pairINSt7__cxx1112basic_stringIcSt11char_traitsIcESaIcEEES6_ESaIS7_EED2Ev(ptr noundef nonnull align 8 dereferenceable(24) %attributes) #25
  resume { ptr, i32 } %.pn3.pn
}